; Function Attrs: nounwind ssp uwtable
define dso_local noundef i32 @crypto_sign_ed25519_seed_keypair(ptr noundef nonnull %0, ptr noundef nonnull %1, ptr noundef nonnull %2) local_unnamed_addr #0 {
  %4 = alloca %struct.ge25519_p3, align 8
  call void @llvm.lifetime.start.p0(i64 160, ptr nonnull %4) #4
  %5 = tail call i32 @crypto_hash_sha512(ptr noundef nonnull %1, ptr noundef nonnull %2, i64 noundef 32) #4
  %6 = load i8, ptr %1, align 1
  %7 = and i8 %6, -8
  store i8 %7, ptr %1, align 1
  %8 = getelementptr i8, ptr %1, i64 31
  %9 = load i8, ptr %8, align 1
  %10 = and i8 %9, 63
  %11 = or disjoint i8 %10, 64
  store i8 %11, ptr %8, align 1
  call void @_sodium_ge25519_scalarmult_base(ptr noundef nonnull %4, ptr noundef nonnull %1) #4
  call void @_sodium_ge25519_p3_tobytes(ptr noundef nonnull %0, ptr noundef nonnull %4) #4
  call void @llvm.memmove.p0.p0.i64(ptr noundef nonnull align 1 dereferenceable(32) %1, ptr noundef nonnull align 1 dereferenceable(32) %2, i64 noundef 32, i1 noundef false) #4
  %12 = getelementptr i8, ptr %1, i64 32
  call void @llvm.memmove.p0.p0.i64(ptr noundef nonnull align 1 dereferenceable(32) %12, ptr noundef nonnull align 1 dereferenceable(32) %0, i64 noundef 32, i1 noundef false) #4
  call void @llvm.lifetime.end.p0(i64 160, ptr nonnull %4) #4
  ret i32 0
}